target datalayout = "e-m:e-p270:32:32-p271:32:32-p272:64:64-i64:64-i128:128-f80:128-n8:16:32:64-S128"
target triple = "x86_64-unknown-linux-gnu"

%struct.emap_s = type { %struct.rtree_s }
%struct.rtree_s = type { ptr, %struct.malloc_mutex_s, [262144 x %struct.rtree_node_elm_s] }
%struct.malloc_mutex_s = type { %union.anon }
%union.anon = type { %struct.anon }
%struct.anon = type { %struct.mutex_prof_data_t, %union.pthread_mutex_t, %struct.atomic_b_t }
%struct.mutex_prof_data_t = type { %struct.nstime_t, %struct.nstime_t, i64, i64, i32, %struct.atomic_u32_t, i64, ptr, i64 }
%struct.nstime_t = type { i64 }
%struct.atomic_u32_t = type { i32 }
%union.pthread_mutex_t = type { %struct.__pthread_mutex_s }
%struct.__pthread_mutex_s = type { i32, i32, i32, i32, i32, i16, i16, %struct.__pthread_internal_list }
%struct.__pthread_internal_list = type { ptr, ptr }
%struct.atomic_b_t = type { i8 }
%struct.rtree_node_elm_s = type { %struct.atomic_p_t }
%struct.atomic_p_t = type { ptr }
%struct.bin_info_s = type { i64, i64, i32, i32, %struct.bitmap_info_s }
%struct.bitmap_info_s = type { i64, i64 }
%struct.rtree_ctx_s = type { [16 x %struct.rtree_ctx_cache_elm_s], [8 x %struct.rtree_ctx_cache_elm_s] }
%struct.rtree_ctx_cache_elm_s = type { i64, ptr }
%struct.rtree_contents_s = type { ptr, %struct.rtree_metadata_s }
%struct.rtree_metadata_s = type { i32, i32, i8, i8 }
%struct.tsd_s = type { i8, i8, i64, i64, i64, i64, i64, i64, i64, i64, i64, i64, i64, i64, ptr, i64, i64, i64, ptr, ptr, %struct.ticker_geom_s, i8, %struct.tsd_binshards_s, %struct.tsd_link_t, i8, %struct.peak_s, %struct.activity_callback_thunk_s, %struct.tcache_slow_s, %struct.rtree_ctx_s, %struct.atomic_u8_t, i64, i64, i64, i64, %struct.tcache_s, %struct.witness_tsd_s }
%struct.ticker_geom_s = type { i32, i32 }
%struct.tsd_binshards_s = type { [39 x i8] }
%struct.tsd_link_t = type { ptr, ptr }
%struct.peak_s = type { i64, i64 }
%struct.activity_callback_thunk_s = type { ptr, ptr }
%struct.tcache_slow_s = type { %struct.anon.2, %struct.cache_bin_array_descriptor_s, ptr, i32, [39 x i8], [39 x i8], [39 x i8], ptr, ptr }
%struct.anon.2 = type { ptr, ptr }
%struct.cache_bin_array_descriptor_s = type { %struct.anon.3, ptr }
%struct.anon.3 = type { ptr, ptr }
%struct.atomic_u8_t = type { i8 }
%struct.tcache_s = type { ptr, [76 x %struct.cache_bin_s] }
%struct.cache_bin_s = type { ptr, %struct.cache_bin_stats_s, i16, i16, i16 }
%struct.cache_bin_stats_s = type { i64 }
%struct.witness_tsd_s = type { %struct.witness_list_t, i8 }
%struct.witness_list_t = type { ptr }
%struct.edata_s = type { i64, ptr, %union.anon.4, ptr, i64, %union.anon.5, %union.anon.8 }
%union.anon.4 = type { i64 }
%union.anon.5 = type { %union.anon.7 }
%union.anon.7 = type { %struct.edata_heap_link_t }
%struct.edata_heap_link_t = type { %struct.phn_link_s }
%struct.phn_link_s = type { ptr, ptr, ptr }
%union.anon.8 = type { %struct.slab_data_s }
%struct.slab_data_s = type { [8 x i64] }

@arena_emap_global = external global %struct.emap_s, align 8
@bin_infos = external global [39 x %struct.bin_info_s], align 16

; Function Attrs: nounwind uwtable
define internal i32 @edata_szind_get_maybe_invalid(ptr noundef %edata) #0 {
entry:
  %edata.addr = alloca ptr, align 8
  %szind = alloca i32, align 4
  store ptr %edata, ptr %edata.addr, align 8
  %0 = load ptr, ptr %edata.addr, align 8
  %e_bits = getelementptr inbounds %struct.edata_s, ptr %0, i32 0, i32 0
  %1 = load i64, ptr %e_bits, align 8
  %and = and i64 %1, 267386880
  %shr = lshr i64 %and, 20
  %conv = trunc i64 %shr to i32
  store i32 %conv, ptr %szind, align 4
  br label %do.body

do.body:                                          ; preds = %entry
  br label %do.end

do.end:                                           ; preds = %do.body
  %2 = load i32, ptr %szind, align 4
  ret i32 %2
}

; Function Attrs: nounwind uwtable
define internal i32 @edata_szind_get(ptr noundef %edata) #0 {
entry:
  %edata.addr = alloca ptr, align 8
  %szind = alloca i32, align 4
  store ptr %edata, ptr %edata.addr, align 8
  %0 = load ptr, ptr %edata.addr, align 8
  %call = call i32 @edata_szind_get_maybe_invalid(ptr noundef %0)
  store i32 %call, ptr %szind, align 4
  br label %do.body

do.body:                                          ; preds = %entry
  br label %do.end

do.end:                                           ; preds = %do.body
  %1 = load i32, ptr %szind, align 4
  ret i32 %1
}

; Function Attrs: nounwind uwtable
define internal i32 @edata_nfree_get(ptr noundef %edata) #0 {
entry:
  %edata.addr = alloca ptr, align 8
  store ptr %edata, ptr %edata.addr, align 8
  br label %do.body

do.body:                                          ; preds = %entry
  br label %do.end

do.end:                                           ; preds = %do.body
  %0 = load ptr, ptr %edata.addr, align 8
  %e_bits = getelementptr inbounds %struct.edata_s, ptr %0, i32 0, i32 0
  %1 = load i64, ptr %e_bits, align 8
  %and = and i64 %1, 274609471488
  %shr = lshr i64 %and, 28
  %conv = trunc i64 %shr to i32
  ret i32 %conv
}

; Function Attrs: nounwind uwtable
define internal zeroext i1 @edata_slab_get(ptr noundef %edata) #0 {
entry:
  %edata.addr = alloca ptr, align 8
  store ptr %edata, ptr %edata.addr, align 8
  %0 = load ptr, ptr %edata.addr, align 8
  %e_bits = getelementptr inbounds %struct.edata_s, ptr %0, i32 0, i32 0
  %1 = load i64, ptr %e_bits, align 8
  %and = and i64 %1, 4096
  %shr = lshr i64 %and, 12
  %tobool = icmp ne i64 %shr, 0
  ret i1 %tobool
}

; Function Attrs: nounwind uwtable
define internal i64 @edata_size_get(ptr noundef %edata) #0 {
entry:
  %edata.addr = alloca ptr, align 8
  store ptr %edata, ptr %edata.addr, align 8
  %0 = load ptr, ptr %edata.addr, align 8
  %1 = getelementptr inbounds %struct.edata_s, ptr %0, i32 0, i32 2
  %2 = load i64, ptr %1, align 8
  %and = and i64 %2, -4096
  ret i64 %and
}

; Function Attrs: nounwind uwtable
define hidden void @inspect_extent_util_stats_get(ptr noundef %tsdn, ptr noundef %ptr, ptr noundef %nfree, ptr noundef %nregs, ptr noundef %size) #0 {
entry:
  %tsd.addr.i23 = alloca ptr, align 8
  %tsd.addr.i21 = alloca ptr, align 8
  %tsd.addr.i19 = alloca ptr, align 8
  %state.i = alloca i8, align 1
  %tsdn.addr.i18 = alloca ptr, align 8
  %tsd.addr.i = alloca ptr, align 8
  %tsdn.addr.i17 = alloca ptr, align 8
  %retval.i = alloca ptr, align 8
  %tsdn.addr.i15 = alloca ptr, align 8
  %fallback.addr.i = alloca ptr, align 8
  %tsdn.addr.i = alloca ptr, align 8
  %emap.addr.i = alloca ptr, align 8
  %ptr.addr.i = alloca ptr, align 8
  %rtree_ctx_fallback.i = alloca %struct.rtree_ctx_s, align 8
  %rtree_ctx.i = alloca ptr, align 8
  %tmp.i = alloca %struct.rtree_contents_s, align 8
  %tsdn.addr = alloca ptr, align 8
  %ptr.addr = alloca ptr, align 8
  %nfree.addr = alloca ptr, align 8
  %nregs.addr = alloca ptr, align 8
  %size.addr = alloca ptr, align 8
  %edata = alloca ptr, align 8
  store ptr %tsdn, ptr %tsdn.addr, align 8
  store ptr %ptr, ptr %ptr.addr, align 8
  store ptr %nfree, ptr %nfree.addr, align 8
  store ptr %nregs, ptr %nregs.addr, align 8
  store ptr %size, ptr %size.addr, align 8
  br label %do.body

do.body:                                          ; preds = %entry
  br label %do.end

do.end:                                           ; preds = %do.body
  %0 = load ptr, ptr %tsdn.addr, align 8
  %1 = load ptr, ptr %ptr.addr, align 8
  store ptr %0, ptr %tsdn.addr.i, align 8
  store ptr @arena_emap_global, ptr %emap.addr.i, align 8
  store ptr %1, ptr %ptr.addr.i, align 8
  %2 = load ptr, ptr %tsdn.addr.i, align 8
  store ptr %2, ptr %tsdn.addr.i15, align 8
  store ptr %rtree_ctx_fallback.i, ptr %fallback.addr.i, align 8
  %3 = load ptr, ptr %tsdn.addr.i15, align 8
  store ptr %3, ptr %tsdn.addr.i17, align 8
  %4 = load ptr, ptr %tsdn.addr.i17, align 8
  %cmp.i = icmp eq ptr %4, null
  br i1 %cmp.i, label %if.then.i, label %if.end.i

if.then.i:                                        ; preds = %do.end
  %5 = load ptr, ptr %fallback.addr.i, align 8
  call void @rtree_ctx_data_init(ptr noundef %5) #4
  %6 = load ptr, ptr %fallback.addr.i, align 8
  store ptr %6, ptr %retval.i, align 8
  br label %tsdn_rtree_ctx.exit

if.end.i:                                         ; preds = %do.end
  %7 = load ptr, ptr %tsdn.addr.i15, align 8
  store ptr %7, ptr %tsdn.addr.i18, align 8
  %8 = load ptr, ptr %tsdn.addr.i18, align 8
  store ptr %8, ptr %tsd.addr.i, align 8
  %9 = load ptr, ptr %tsd.addr.i, align 8
  store ptr %9, ptr %tsd.addr.i19, align 8
  %10 = load ptr, ptr %tsd.addr.i19, align 8
  store ptr %10, ptr %tsd.addr.i21, align 8
  %11 = load ptr, ptr %tsd.addr.i21, align 8
  %state.i22 = getelementptr inbounds %struct.tsd_s, ptr %11, i32 0, i32 29
  %12 = load i8, ptr %state.i22, align 8
  store i8 %12, ptr %state.i, align 1
  %13 = load ptr, ptr %tsd.addr.i19, align 8
  store ptr %13, ptr %tsd.addr.i23, align 8
  %14 = load ptr, ptr %tsd.addr.i23, align 8
  %cant_access_tsd_items_directly_use_a_getter_or_setter_rtree_ctx.i = getelementptr inbounds %struct.tsd_s, ptr %14, i32 0, i32 28
  store ptr %cant_access_tsd_items_directly_use_a_getter_or_setter_rtree_ctx.i, ptr %retval.i, align 8
  br label %tsdn_rtree_ctx.exit

tsdn_rtree_ctx.exit:                              ; preds = %if.end.i, %if.then.i
  %15 = load ptr, ptr %retval.i, align 8
  store ptr %15, ptr %rtree_ctx.i, align 8
  %16 = load ptr, ptr %tsdn.addr.i, align 8
  %17 = load ptr, ptr %emap.addr.i, align 8
  %18 = load ptr, ptr %rtree_ctx.i, align 8
  %19 = load ptr, ptr %ptr.addr.i, align 8
  %20 = ptrtoint ptr %19 to i64
  call void @rtree_read(ptr dead_on_unwind writable sret(%struct.rtree_contents_s) align 8 %tmp.i, ptr noundef %16, ptr noundef %17, ptr noundef %18, i64 noundef %20)
  %21 = load ptr, ptr %tmp.i, align 8
  store ptr %21, ptr %edata, align 8
  %22 = load ptr, ptr %edata, align 8
  %cmp = icmp eq ptr %22, null
  %lnot = xor i1 %cmp, true
  %lnot1 = xor i1 %lnot, true
  %lnot.ext = zext i1 %lnot1 to i32
  %conv = sext i32 %lnot.ext to i64
  %tobool = icmp ne i64 %conv, 0
  br i1 %tobool, label %if.then, label %if.end

if.then:                                          ; preds = %tsdn_rtree_ctx.exit
  %23 = load ptr, ptr %size.addr, align 8
  store i64 0, ptr %23, align 8
  %24 = load ptr, ptr %nregs.addr, align 8
  store i64 0, ptr %24, align 8
  %25 = load ptr, ptr %nfree.addr, align 8
  store i64 0, ptr %25, align 8
  br label %if.end14

if.end:                                           ; preds = %tsdn_rtree_ctx.exit
  %26 = load ptr, ptr %edata, align 8
  %call2 = call i64 @edata_size_get(ptr noundef %26)
  %27 = load ptr, ptr %size.addr, align 8
  store i64 %call2, ptr %27, align 8
  %28 = load ptr, ptr %edata, align 8
  %call3 = call zeroext i1 @edata_slab_get(ptr noundef %28)
  br i1 %call3, label %if.else, label %if.then4

if.then4:                                         ; preds = %if.end
  %29 = load ptr, ptr %nfree.addr, align 8
  store i64 0, ptr %29, align 8
  %30 = load ptr, ptr %nregs.addr, align 8
  store i64 1, ptr %30, align 8
  br label %if.end14

if.else:                                          ; preds = %if.end
  %31 = load ptr, ptr %edata, align 8
  %call5 = call i32 @edata_nfree_get(ptr noundef %31)
  %conv6 = zext i32 %call5 to i64
  %32 = load ptr, ptr %nfree.addr, align 8
  store i64 %conv6, ptr %32, align 8
  %33 = load ptr, ptr %edata, align 8
  %call7 = call i32 @edata_szind_get(ptr noundef %33)
  %idxprom = zext i32 %call7 to i64
  %arrayidx = getelementptr inbounds [39 x %struct.bin_info_s], ptr @bin_infos, i64 0, i64 %idxprom
  %nregs8 = getelementptr inbounds %struct.bin_info_s, ptr %arrayidx, i32 0, i32 2
  %34 = load i32, ptr %nregs8, align 8
  %conv9 = zext i32 %34 to i64
  %35 = load ptr, ptr %nregs.addr, align 8
  store i64 %conv9, ptr %35, align 8
  br label %do.body10

do.body10:                                        ; preds = %if.else
  br label %do.end11

do.end11:                                         ; preds = %do.body10
  br label %do.body12

do.body12:                                        ; preds = %do.end11
  br label %do.end13

do.end13:                                         ; preds = %do.body12
  br label %if.end14

if.end14:                                         ; preds = %do.end13, %if.then4, %if.then
  ret void
}