; Function Attrs: nounwind uwtable
define hidden void @inspect_extent_util_stats_get(ptr noundef %tsdn, ptr noundef %ptr, ptr nocapture noundef writeonly %nfree, ptr nocapture noundef writeonly %nregs, ptr nocapture noundef writeonly %size) local_unnamed_addr #0 {
entry:
  %rtree_ctx_fallback.i = alloca %struct.rtree_ctx_s, align 8
  %tmp.i = alloca %struct.rtree_contents_s, align 8
  %cmp.i = icmp eq ptr %tsdn, null
  %0 = ptrtoint ptr %ptr to i64
  br i1 %cmp.i, label %if.then.i, label %if.end.i.split

if.then.i:                                        ; preds = %entry
  call void @rtree_ctx_data_init(ptr noundef nonnull %rtree_ctx_fallback.i) #3
  call fastcc void @rtree_read(ptr dead_on_unwind noalias nonnull writable align 8 %tmp.i, ptr noundef null, ptr noundef nonnull %rtree_ctx_fallback.i, i64 noundef %0)
  br label %tsdn_rtree_ctx.exit

if.end.i.split:                                   ; preds = %entry
  %cant_access_tsd_items_directly_use_a_getter_or_setter_rtree_ctx.i = getelementptr inbounds i8, ptr %tsdn, i64 448
  call fastcc void @rtree_read(ptr dead_on_unwind noalias nonnull writable align 8 %tmp.i, ptr noundef nonnull %tsdn, ptr noundef nonnull %cant_access_tsd_items_directly_use_a_getter_or_setter_rtree_ctx.i, i64 noundef %0)
  br label %tsdn_rtree_ctx.exit

tsdn_rtree_ctx.exit:                              ; preds = %if.end.i.split, %if.then.i
  %1 = load ptr, ptr %tmp.i, align 8
  %cmp = icmp eq ptr %1, null
  br i1 %cmp, label %if.then, label %if.end

if.then:                                          ; preds = %tsdn_rtree_ctx.exit
  store i64 0, ptr %size, align 8
  store i64 0, ptr %nregs, align 8
  store i64 0, ptr %nfree, align 8
  br label %if.end14

if.end:                                           ; preds = %tsdn_rtree_ctx.exit
  %2 = getelementptr i8, ptr %1, i64 16
  %.val = load i64, ptr %2, align 8
  %and.i = and i64 %.val, -4096
  store i64 %and.i, ptr %size, align 8
  %.val14 = load i64, ptr %1, align 8
  %3 = and i64 %.val14, 4096
  %tobool.i.not = icmp eq i64 %3, 0
  br i1 %tobool.i.not, label %if.then4, label %if.else

if.then4:                                         ; preds = %if.end
  store i64 0, ptr %nfree, align 8
  store i64 1, ptr %nregs, align 8
  br label %if.end14

if.else:                                          ; preds = %if.end
  %and.i17 = lshr i64 %.val14, 28
  %conv.i = and i64 %and.i17, 1023
  store i64 %conv.i, ptr %nfree, align 8
  %.val16 = load i64, ptr %1, align 8
  %4 = lshr i64 %.val16, 20
  %conv.i.i = and i64 %4, 255
  %nregs8 = getelementptr inbounds [39 x %struct.bin_info_s], ptr @bin_infos, i64 0, i64 %conv.i.i, i32 2
  %5 = load i32, ptr %nregs8, align 8
  %conv9 = zext i32 %5 to i64
  store i64 %conv9, ptr %nregs, align 8
  br label %if.end14

if.end14:                                         ; preds = %if.else, %if.then4, %if.then
  ret void
}